target datalayout = "e-m:e-p270:32:32-p271:32:32-p272:64:64-i64:64-i128:128-f80:128-n8:16:32:64-S128"
target triple = "x86_64-pc-linux-gnu"

%struct.H5VL_get_connector_ud_t = type { %struct.H5PL_vol_key_t, i64 }
%struct.H5PL_vol_key_t = type { i32, %union.anon.5 }
%union.anon.5 = type { ptr }
%union.H5PL_key_t = type { %struct.H5PL_vol_key_t }

@.str.2 = private unnamed_addr constant [101 x i8] c"generated/home/dtcxzyw/WorkSpace/Projects/compilers/llvm-opt-benchmark/bench/hdf5/hdf5/src/H5VLint.c\00", align 1
@H5E_VOL_g = external global i64, align 8
@H5E_CANTINIT_g = external global i64, align 8
@H5E_CANTINC_g = external global i64, align 8
@H5E_CANTREGISTER_g = external global i64, align 8
@.str.44 = private unnamed_addr constant [47 x i8] c"unable to increment ref count on VOL connector\00", align 1
@.str.58 = private unnamed_addr constant [36 x i8] c"unable to register VOL connector ID\00", align 1
@H5E_BADITER_g = external global i64, align 8
@.str.67 = private unnamed_addr constant [27 x i8] c"can't iterate over VOL ids\00", align 1
@.str.68 = private unnamed_addr constant [29 x i8] c"unable to load VOL connector\00", align 1
@__func__.H5VL__register_connector_by_value = private unnamed_addr constant [34 x i8] c"H5VL__register_connector_by_value\00", align 1

; Function Attrs: nounwind uwtable
define i64 @H5VL__register_connector_by_value(i32 noundef %0, i1 noundef zeroext %1, i64 noundef %2) #0 {
  %4 = alloca i32, align 4
  %5 = alloca i8, align 1
  %6 = alloca i64, align 8
  %7 = alloca %struct.H5VL_get_connector_ud_t, align 8
  %8 = alloca i64, align 8
  %9 = alloca i8, align 1
  %10 = alloca %union.H5PL_key_t, align 8
  %11 = alloca ptr, align 8
  store i32 %0, ptr %4, align 4
  %12 = zext i1 %1 to i8
  store i8 %12, ptr %5, align 1
  store i64 %2, ptr %6, align 8
  store i64 -1, ptr %8, align 8
  store i8 0, ptr %9, align 1
  %13 = getelementptr inbounds %struct.H5VL_get_connector_ud_t, ptr %7, i32 0, i32 0
  %14 = getelementptr inbounds %struct.H5PL_vol_key_t, ptr %13, i32 0, i32 0
  store i32 1, ptr %14, align 8
  %15 = load i32, ptr %4, align 4
  %16 = getelementptr inbounds %struct.H5VL_get_connector_ud_t, ptr %7, i32 0, i32 0
  %17 = getelementptr inbounds %struct.H5PL_vol_key_t, ptr %16, i32 0, i32 1
  store i32 %15, ptr %17, align 8
  %18 = getelementptr inbounds %struct.H5VL_get_connector_ud_t, ptr %7, i32 0, i32 1
  store i64 -1, ptr %18, align 8
  %19 = load i8, ptr %5, align 1
  %20 = trunc i8 %19 to i1
  %21 = call i32 @H5I_iterate(i32 noundef 9, ptr noundef @H5VL__get_connector_cb, ptr noundef %7, i1 noundef zeroext %20)
  %22 = icmp slt i32 %21, 0
  br i1 %22, label %23, label %38

23:                                               ; preds = %3
  br label %24

24:                                               ; preds = %23
  br label %25

25:                                               ; preds = %24
  br label %26

26:                                               ; preds = %25
  %27 = load i64, ptr @H5E_VOL_g, align 8
  %28 = load i64, ptr @H5E_BADITER_g, align 8
  %29 = call i32 (ptr, ptr, i32, i64, i64, ptr, ...) @H5E_printf_stack(ptr noundef @.str.2, ptr noundef @__func__.H5VL__register_connector_by_value, i32 noundef 1363, i64 noundef %27, i64 noundef %28, ptr noundef @.str.67)
  br label %30

30:                                               ; preds = %26
  store i8 1, ptr %9, align 1
  %31 = load i8, ptr %9, align 1
  %32 = trunc i8 %31 to i1
  %33 = zext i1 %32 to i8
  store i8 %33, ptr %9, align 1
  br label %34

34:                                               ; preds = %30
  br label %35

35:                                               ; preds = %34
  store i64 -1, ptr %8, align 8
  br label %112

36:                                               ; No predecessors!
  br label %37

37:                                               ; preds = %36
  br label %38

38:                                               ; preds = %37, %3
  %39 = getelementptr inbounds %struct.H5VL_get_connector_ud_t, ptr %7, i32 0, i32 1
  %40 = load i64, ptr %39, align 8
  %41 = icmp ne i64 %40, -1
  br i1 %41, label %42, label %67

42:                                               ; preds = %38
  %43 = getelementptr inbounds %struct.H5VL_get_connector_ud_t, ptr %7, i32 0, i32 1
  %44 = load i64, ptr %43, align 8
  %45 = load i8, ptr %5, align 1
  %46 = trunc i8 %45 to i1
  %47 = call i32 @H5I_inc_ref(i64 noundef %44, i1 noundef zeroext %46)
  %48 = icmp slt i32 %47, 0
  br i1 %48, label %49, label %64

49:                                               ; preds = %42
  br label %50

50:                                               ; preds = %49
  br label %51

51:                                               ; preds = %50
  br label %52

52:                                               ; preds = %51
  %53 = load i64, ptr @H5E_VOL_g, align 8
  %54 = load i64, ptr @H5E_CANTINC_g, align 8
  %55 = call i32 (ptr, ptr, i32, i64, i64, ptr, ...) @H5E_printf_stack(ptr noundef @.str.2, ptr noundef @__func__.H5VL__register_connector_by_value, i32 noundef 1369, i64 noundef %53, i64 noundef %54, ptr noundef @.str.44)
  br label %56

56:                                               ; preds = %52
  store i8 1, ptr %9, align 1
  %57 = load i8, ptr %9, align 1
  %58 = trunc i8 %57 to i1
  %59 = zext i1 %58 to i8
  store i8 %59, ptr %9, align 1
  br label %60

60:                                               ; preds = %56
  br label %61

61:                                               ; preds = %60
  store i64 -1, ptr %8, align 8
  br label %112

62:                                               ; No predecessors!
  br label %63

63:                                               ; preds = %62
  br label %64

64:                                               ; preds = %63, %42
  %65 = getelementptr inbounds %struct.H5VL_get_connector_ud_t, ptr %7, i32 0, i32 1
  %66 = load i64, ptr %65, align 8
  store i64 %66, ptr %8, align 8
  br label %111

67:                                               ; preds = %38
  %68 = getelementptr inbounds %struct.H5PL_vol_key_t, ptr %10, i32 0, i32 0
  store i32 1, ptr %68, align 8
  %69 = load i32, ptr %4, align 4
  %70 = getelementptr inbounds %struct.H5PL_vol_key_t, ptr %10, i32 0, i32 1
  store i32 %69, ptr %70, align 8
  %71 = call ptr @H5PL_load(i32 noundef 1, ptr noundef %10)
  store ptr %71, ptr %11, align 8
  %72 = icmp eq ptr null, %71
  br i1 %72, label %73, label %88

73:                                               ; preds = %67
  br label %74

74:                                               ; preds = %73
  br label %75

75:                                               ; preds = %74
  br label %76

76:                                               ; preds = %75
  %77 = load i64, ptr @H5E_VOL_g, align 8
  %78 = load i64, ptr @H5E_CANTINIT_g, align 8
  %79 = call i32 (ptr, ptr, i32, i64, i64, ptr, ...) @H5E_printf_stack(ptr noundef @.str.2, ptr noundef @__func__.H5VL__register_connector_by_value, i32 noundef 1380, i64 noundef %77, i64 noundef %78, ptr noundef @.str.68)
  br label %80

80:                                               ; preds = %76
  store i8 1, ptr %9, align 1
  %81 = load i8, ptr %9, align 1
  %82 = trunc i8 %81 to i1
  %83 = zext i1 %82 to i8
  store i8 %83, ptr %9, align 1
  br label %84

84:                                               ; preds = %80
  br label %85

85:                                               ; preds = %84
  store i64 -1, ptr %8, align 8
  br label %112

86:                                               ; No predecessors!
  br label %87

87:                                               ; preds = %86
  br label %88

88:                                               ; preds = %87, %67
  %89 = load ptr, ptr %11, align 8
  %90 = load i8, ptr %5, align 1
  %91 = trunc i8 %90 to i1
  %92 = load i64, ptr %6, align 8
  %93 = call i64 @H5VL__register_connector(ptr noundef %89, i1 noundef zeroext %91, i64 noundef %92)
  store i64 %93, ptr %8, align 8
  %94 = icmp slt i64 %93, 0
  br i1 %94, label %95, label %110

95:                                               ; preds = %88
  br label %96

96:                                               ; preds = %95
  br label %97

97:                                               ; preds = %96
  br label %98

98:                                               ; preds = %97
  %99 = load i64, ptr @H5E_VOL_g, align 8
  %100 = load i64, ptr @H5E_CANTREGISTER_g, align 8
  %101 = call i32 (ptr, ptr, i32, i64, i64, ptr, ...) @H5E_printf_stack(ptr noundef @.str.2, ptr noundef @__func__.H5VL__register_connector_by_value, i32 noundef 1384, i64 noundef %99, i64 noundef %100, ptr noundef @.str.58)
  br label %102

102:                                              ; preds = %98
  store i8 1, ptr %9, align 1
  %103 = load i8, ptr %9, align 1
  %104 = trunc i8 %103 to i1
  %105 = zext i1 %104 to i8
  store i8 %105, ptr %9, align 1
  br label %106

106:                                              ; preds = %102
  br label %107

107:                                              ; preds = %106
  store i64 -1, ptr %8, align 8
  br label %112

108:                                              ; No predecessors!
  br label %109

109:                                              ; preds = %108
  br label %110

110:                                              ; preds = %109, %88
  br label %111

111:                                              ; preds = %110, %64
  br label %112

112:                                              ; preds = %111, %107, %85, %61, %35
  %113 = load i64, ptr %8, align 8
  ret i64 %113
}