; Function Attrs: nounwind uwtable
define i64 @H5VL__register_connector_by_value(i32 noundef %0, i1 noundef zeroext %1, i64 noundef %2) local_unnamed_addr #0 {
  %4 = alloca %struct.H5VL_get_connector_ud_t, align 8
  %5 = alloca %union.H5PL_key_t, align 8
  store i32 1, ptr %4, align 8
  %6 = getelementptr inbounds i8, ptr %4, i64 8
  store i32 %0, ptr %6, align 8
  %7 = getelementptr inbounds i8, ptr %4, i64 16
  store i64 -1, ptr %7, align 8
  %8 = call i32 @H5I_iterate(i32 noundef 9, ptr noundef nonnull @H5VL__get_connector_cb, ptr noundef nonnull %4, i1 noundef zeroext %1) #10
  %9 = icmp slt i32 %8, 0
  br i1 %9, label %10, label %14

10:                                               ; preds = %3
  %11 = load i64, ptr @H5E_VOL_g, align 8
  %12 = load i64, ptr @H5E_BADITER_g, align 8
  %13 = call i32 (ptr, ptr, i32, i64, i64, ptr, ...) @H5E_printf_stack(ptr noundef nonnull @.str.2, ptr noundef nonnull @__func__.H5VL__register_connector_by_value, i32 noundef 1363, i64 noundef %11, i64 noundef %12, ptr noundef nonnull @.str.67) #10
  br label %40

14:                                               ; preds = %3
  %15 = load i64, ptr %7, align 8
  %.not = icmp eq i64 %15, -1
  br i1 %.not, label %25, label %16

16:                                               ; preds = %14
  %17 = call i32 @H5I_inc_ref(i64 noundef %15, i1 noundef zeroext %1) #10
  %18 = icmp slt i32 %17, 0
  br i1 %18, label %19, label %23

19:                                               ; preds = %16
  %20 = load i64, ptr @H5E_VOL_g, align 8
  %21 = load i64, ptr @H5E_CANTINC_g, align 8
  %22 = call i32 (ptr, ptr, i32, i64, i64, ptr, ...) @H5E_printf_stack(ptr noundef nonnull @.str.2, ptr noundef nonnull @__func__.H5VL__register_connector_by_value, i32 noundef 1369, i64 noundef %20, i64 noundef %21, ptr noundef nonnull @.str.44) #10
  br label %40

23:                                               ; preds = %16
  %24 = load i64, ptr %7, align 8
  br label %40

25:                                               ; preds = %14
  store i32 1, ptr %5, align 8
  %26 = getelementptr inbounds i8, ptr %5, i64 8
  store i32 %0, ptr %26, align 8
  %27 = call ptr @H5PL_load(i32 noundef 1, ptr noundef nonnull %5) #10
  %28 = icmp eq ptr %27, null
  br i1 %28, label %29, label %33

29:                                               ; preds = %25
  %30 = load i64, ptr @H5E_VOL_g, align 8
  %31 = load i64, ptr @H5E_CANTINIT_g, align 8
  %32 = call i32 (ptr, ptr, i32, i64, i64, ptr, ...) @H5E_printf_stack(ptr noundef nonnull @.str.2, ptr noundef nonnull @__func__.H5VL__register_connector_by_value, i32 noundef 1380, i64 noundef %30, i64 noundef %31, ptr noundef nonnull @.str.68) #10
  br label %40

33:                                               ; preds = %25
  %34 = call i64 @H5VL__register_connector(ptr noundef nonnull %27, i1 noundef zeroext %1, i64 noundef %2)
  %35 = icmp slt i64 %34, 0
  br i1 %35, label %36, label %40

36:                                               ; preds = %33
  %37 = load i64, ptr @H5E_VOL_g, align 8
  %38 = load i64, ptr @H5E_CANTREGISTER_g, align 8
  %39 = call i32 (ptr, ptr, i32, i64, i64, ptr, ...) @H5E_printf_stack(ptr noundef nonnull @.str.2, ptr noundef nonnull @__func__.H5VL__register_connector_by_value, i32 noundef 1384, i64 noundef %37, i64 noundef %38, ptr noundef nonnull @.str.58) #10
  br label %40

40:                                               ; preds = %23, %33, %36, %29, %19, %10
  %.0 = phi i64 [ -1, %10 ], [ -1, %19 ], [ %24, %23 ], [ -1, %29 ], [ -1, %36 ], [ %34, %33 ]
  ret i64 %.0
}